target datalayout = "e-m:e-p270:32:32-p271:32:32-p272:64:64-i64:64-i128:128-f80:128-n8:16:32:64-S128"
target triple = "x86_64-pc-linux-gnu"

%struct.expert_field = type { i32, i32 }

@hf_pn_io_profidrive_param_value_byte = internal global i32 0, align 4
@hf_pn_io_profidrive_param_value_word = internal global i32 0, align 4
@hf_pn_io_profidrive_param_value_dword = internal global i32 0, align 4
@hf_pn_io_profidrive_param_value_float = internal global i32 0, align 4
@hf_pn_io_profidrive_param_value_string = internal global i32 0, align 4
@ei_pn_io_unsupported = internal global %struct.expert_field zeroinitializer, align 4
@.str.1637 = private unnamed_addr constant [36 x i8] c"Not supported or invalid format %u!\00", align 1

; Function Attrs: nounwind uwtable
define internal i32 @dissect_profidrive_value(ptr noundef %0, i32 noundef %1, ptr noundef %2, ptr noundef %3, ptr noundef %4, i8 noundef zeroext %5) #0 {
  %7 = alloca ptr, align 8
  %8 = alloca i32, align 4
  %9 = alloca ptr, align 8
  %10 = alloca ptr, align 8
  %11 = alloca ptr, align 8
  %12 = alloca i8, align 1
  %13 = alloca i32, align 4
  %14 = alloca i16, align 2
  %15 = alloca i8, align 1
  %16 = alloca i32, align 4
  store ptr %0, ptr %7, align 8
  store i32 %1, ptr %8, align 4
  store ptr %2, ptr %9, align 8
  store ptr %3, ptr %10, align 8
  store ptr %4, ptr %11, align 8
  store i8 %5, ptr %12, align 1
  %17 = load i8, ptr %12, align 1
  %18 = zext i8 %17 to i32
  switch i32 %18, label %64 [
    i32 1, label %19
    i32 2, label %19
    i32 5, label %19
    i32 10, label %19
    i32 65, label %19
    i32 3, label %27
    i32 6, label %27
    i32 66, label %27
    i32 115, label %27
    i32 4, label %35
    i32 7, label %35
    i32 67, label %35
    i32 8, label %43
    i32 9, label %51
  ]

19:                                               ; preds = %6, %6, %6, %6, %6
  %20 = load ptr, ptr %7, align 8
  %21 = load i32, ptr %8, align 4
  %22 = load ptr, ptr %9, align 8
  %23 = load ptr, ptr %10, align 8
  %24 = load ptr, ptr %11, align 8
  %25 = load i32, ptr @hf_pn_io_profidrive_param_value_byte, align 4
  %26 = call i32 @dissect_dcerpc_uint8(ptr noundef %20, i32 noundef %21, ptr noundef %22, ptr noundef %23, ptr noundef %24, i32 noundef %25, ptr noundef %15)
  store i32 %26, ptr %8, align 4
  br label %72

27:                                               ; preds = %6, %6, %6, %6
  %28 = load ptr, ptr %7, align 8
  %29 = load i32, ptr %8, align 4
  %30 = load ptr, ptr %9, align 8
  %31 = load ptr, ptr %10, align 8
  %32 = load ptr, ptr %11, align 8
  %33 = load i32, ptr @hf_pn_io_profidrive_param_value_word, align 4
  %34 = call i32 @dissect_dcerpc_uint16(ptr noundef %28, i32 noundef %29, ptr noundef %30, ptr noundef %31, ptr noundef %32, i32 noundef %33, ptr noundef %14)
  store i32 %34, ptr %8, align 4
  br label %72

35:                                               ; preds = %6, %6, %6
  %36 = load ptr, ptr %7, align 8
  %37 = load i32, ptr %8, align 4
  %38 = load ptr, ptr %9, align 8
  %39 = load ptr, ptr %10, align 8
  %40 = load ptr, ptr %11, align 8
  %41 = load i32, ptr @hf_pn_io_profidrive_param_value_dword, align 4
  %42 = call i32 @dissect_dcerpc_uint32(ptr noundef %36, i32 noundef %37, ptr noundef %38, ptr noundef %39, ptr noundef %40, i32 noundef %41, ptr noundef %13)
  store i32 %42, ptr %8, align 4
  br label %72

43:                                               ; preds = %6
  %44 = load ptr, ptr %7, align 8
  %45 = load i32, ptr %8, align 4
  %46 = load ptr, ptr %9, align 8
  %47 = load ptr, ptr %10, align 8
  %48 = load ptr, ptr %11, align 8
  %49 = load i32, ptr @hf_pn_io_profidrive_param_value_float, align 4
  %50 = call i32 @dissect_dcerpc_uint32(ptr noundef %44, i32 noundef %45, ptr noundef %46, ptr noundef %47, ptr noundef %48, i32 noundef %49, ptr noundef %13)
  store i32 %50, ptr %8, align 4
  br label %72

51:                                               ; preds = %6
  %52 = load ptr, ptr %7, align 8
  %53 = load i32, ptr %8, align 4
  %54 = call i32 @tvb_strnlen(ptr noundef %52, i32 noundef %53, i32 noundef -1)
  store i32 %54, ptr %16, align 4
  %55 = load ptr, ptr %10, align 8
  %56 = load i32, ptr @hf_pn_io_profidrive_param_value_string, align 4
  %57 = load ptr, ptr %7, align 8
  %58 = load i32, ptr %8, align 4
  %59 = load i32, ptr %16, align 4
  %60 = call ptr @proto_tree_add_item(ptr noundef %55, i32 noundef %56, ptr noundef %57, i32 noundef %58, i32 noundef %59, i32 noundef 0)
  %61 = load i32, ptr %8, align 4
  %62 = load i32, ptr %16, align 4
  %63 = add i32 %61, %62
  store i32 %63, ptr %8, align 4
  br label %72

64:                                               ; preds = %6
  %65 = load i32, ptr %8, align 4
  %66 = add i32 %65, 1
  store i32 %66, ptr %8, align 4
  %67 = load ptr, ptr %9, align 8
  %68 = load ptr, ptr %10, align 8
  %69 = load i8, ptr %12, align 1
  %70 = zext i8 %69 to i32
  %71 = call ptr (ptr, ptr, ptr, ptr, ...) @expert_add_info_format(ptr noundef %67, ptr noundef %68, ptr noundef @ei_pn_io_unsupported, ptr noundef @.str.1637, i32 noundef %70)
  br label %72

72:                                               ; preds = %64, %51, %43, %35, %27, %19
  %73 = load i32, ptr %8, align 4
  ret i32 %73
}