; Function Attrs: nounwind uwtable
define internal fastcc i32 @dissect_profidrive_value(ptr noundef %0, i32 noundef %1, ptr noundef %2, ptr noundef %3, ptr noundef %4, i8 noundef zeroext %5) unnamed_addr #0 {
  %7 = alloca i32, align 4
  %8 = alloca i16, align 2
  %9 = alloca i8, align 1
  switch i8 %5, label %27 [
    i8 1, label %10
    i8 2, label %10
    i8 5, label %10
    i8 10, label %10
    i8 65, label %10
    i8 3, label %13
    i8 6, label %13
    i8 66, label %13
    i8 115, label %13
    i8 4, label %16
    i8 7, label %16
    i8 67, label %16
    i8 8, label %19
    i8 9, label %22
  ]

10:                                               ; preds = %6, %6, %6, %6, %6
  %11 = load i32, ptr @hf_pn_io_profidrive_param_value_byte, align 4
  %12 = call i32 @dissect_dcerpc_uint8(ptr noundef %0, i32 noundef %1, ptr noundef %2, ptr noundef %3, ptr noundef %4, i32 noundef %11, ptr noundef nonnull %9) #11
  br label %31

13:                                               ; preds = %6, %6, %6, %6
  %14 = load i32, ptr @hf_pn_io_profidrive_param_value_word, align 4
  %15 = call i32 @dissect_dcerpc_uint16(ptr noundef %0, i32 noundef %1, ptr noundef %2, ptr noundef %3, ptr noundef %4, i32 noundef %14, ptr noundef nonnull %8) #11
  br label %31

16:                                               ; preds = %6, %6, %6
  %17 = load i32, ptr @hf_pn_io_profidrive_param_value_dword, align 4
  %18 = call i32 @dissect_dcerpc_uint32(ptr noundef %0, i32 noundef %1, ptr noundef %2, ptr noundef %3, ptr noundef %4, i32 noundef %17, ptr noundef nonnull %7) #11
  br label %31

19:                                               ; preds = %6
  %20 = load i32, ptr @hf_pn_io_profidrive_param_value_float, align 4
  %21 = call i32 @dissect_dcerpc_uint32(ptr noundef %0, i32 noundef %1, ptr noundef %2, ptr noundef %3, ptr noundef %4, i32 noundef %20, ptr noundef nonnull %7) #11
  br label %31

22:                                               ; preds = %6
  %23 = tail call i32 @tvb_strnlen(ptr noundef %0, i32 noundef %1, i32 noundef -1) #11
  %24 = load i32, ptr @hf_pn_io_profidrive_param_value_string, align 4
  %25 = tail call ptr @proto_tree_add_item(ptr noundef %3, i32 noundef %24, ptr noundef %0, i32 noundef %1, i32 noundef %23, i32 noundef 0) #11
  %26 = add i32 %23, %1
  br label %31

27:                                               ; preds = %6
  %28 = zext i8 %5 to i32
  %29 = add i32 %1, 1
  %30 = tail call ptr (ptr, ptr, ptr, ptr, ...) @expert_add_info_format(ptr noundef %2, ptr noundef %3, ptr noundef nonnull @ei_pn_io_unsupported, ptr noundef nonnull @.str.1637, i32 noundef %28) #11
  br label %31

31:                                               ; preds = %27, %22, %19, %16, %13, %10
  %.0 = phi i32 [ %29, %27 ], [ %26, %22 ], [ %21, %19 ], [ %18, %16 ], [ %15, %13 ], [ %12, %10 ]
  ret i32 %.0
}